; ModuleID = '7/45.c'
source_filename = "7/45.c"
target datalayout = "e-m:e-p270:32:32-p271:32:32-p272:64:64-i64:64-f80:128-n8:16:32:64-S128"
target triple = "x86_64-pc-linux-gnu"

@.str = private unnamed_addr constant [3 x i8] c"%s\00", align 1
@.str.1 = private unnamed_addr constant [4 x i8] c"%s\0A\00", align 1

; Function Attrs: noinline nounwind uwtable
define dso_local void @main() #0 {
  %1 = alloca i8, align 1
  %2 = alloca i8, align 1
  %3 = alloca [256 x i8], align 16
  %4 = alloca [256 x i8], align 16
  %5 = alloca [256 x i8], align 16
  %6 = alloca i32, align 4
  %7 = alloca i32, align 4
  %8 = alloca i32, align 4
  %9 = alloca i32, align 4
  %10 = alloca i32, align 4
  %11 = alloca i32, align 4
  store i32 0, i32* %9, align 4
  store i32 0, i32* %11, align 4
  %12 = getelementptr inbounds [256 x i8], [256 x i8]* %3, i64 0, i64 0
  %13 = call i32 (i8*, ...) @__isoc99_scanf(i8* getelementptr inbounds ([3 x i8], [3 x i8]* @.str, i64 0, i64 0), i8* %12)
  %14 = getelementptr inbounds [256 x i8], [256 x i8]* %4, i64 0, i64 0
  %15 = call i32 (i8*, ...) @__isoc99_scanf(i8* getelementptr inbounds ([3 x i8], [3 x i8]* @.str, i64 0, i64 0), i8* %14)
  %16 = getelementptr inbounds [256 x i8], [256 x i8]* %5, i64 0, i64 0
  %17 = call i32 (i8*, ...) @__isoc99_scanf(i8* getelementptr inbounds ([3 x i8], [3 x i8]* @.str, i64 0, i64 0), i8* %16)
  %18 = getelementptr inbounds [256 x i8], [256 x i8]* %4, i64 0, i64 0
  %19 = call i64 @strlen(i8* %18) #3
  %20 = trunc i64 %19 to i32
  store i32 %20, i32* %6, align 4
  store i32 0, i32* %8, align 4
  br label %21

21:                                               ; preds = %71, %0
  %22 = load i32, i32* %8, align 4
  %23 = sext i32 %22 to i64
  %24 = getelementptr inbounds [256 x i8], [256 x i8]* %4, i64 0, i64 %23
  %25 = load i8, i8* %24, align 1
  store i8 %25, i8* %1, align 1
  %26 = sext i8 %25 to i32
  %27 = icmp ne i32 %26, 0
  br i1 %27, label %28, label %74

28:                                               ; preds = %21
  %29 = load i32, i32* %8, align 4
  %30 = sext i32 %29 to i64
  %31 = getelementptr inbounds [256 x i8], [256 x i8]* %4, i64 0, i64 %30
  %32 = load i8, i8* %31, align 1
  store i8 %32, i8* %1, align 1
  br label %33

33:                                               ; preds = %67, %28
  %34 = load i32, i32* %9, align 4
  %35 = sext i32 %34 to i64
  %36 = getelementptr inbounds [256 x i8], [256 x i8]* %3, i64 0, i64 %35
  %37 = load i8, i8* %36, align 1
  store i8 %37, i8* %2, align 1
  %38 = sext i8 %37 to i32
  %39 = icmp ne i32 %38, 0
  br i1 %39, label %40, label %70

40:                                               ; preds = %33
  %41 = load i32, i32* %9, align 4
  %42 = sext i32 %41 to i64
  %43 = getelementptr inbounds [256 x i8], [256 x i8]* %3, i64 0, i64 %42
  %44 = load i8, i8* %43, align 1
  store i8 %44, i8* %2, align 1
  %45 = load i8, i8* %1, align 1
  %46 = sext i8 %45 to i32
  %47 = load i8, i8* %2, align 1
  %48 = sext i8 %47 to i32
  %49 = icmp eq i32 %46, %48
  br i1 %49, label %50, label %55

50:                                               ; preds = %40
  %51 = load i32, i32* %11, align 4
  %52 = add nsw i32 %51, 1
  store i32 %52, i32* %11, align 4
  %53 = load i32, i32* %9, align 4
  %54 = add nsw i32 %53, 1
  store i32 %54, i32* %9, align 4
  br label %70

55:                                               ; preds = %40
  %56 = load i8, i8* %1, align 1
  %57 = sext i8 %56 to i32
  %58 = load i8, i8* %2, align 1
  %59 = sext i8 %58 to i32
  %60 = icmp ne i32 %57, %59
  br i1 %60, label %61, label %65

61:                                               ; preds = %55
  %62 = load i32, i32* %11, align 4
  %63 = icmp ne i32 %62, 0
  br i1 %63, label %64, label %65

64:                                               ; preds = %61
  store i32 0, i32* %11, align 4
  store i32 -1, i32* %8, align 4
  br label %70

65:                                               ; preds = %61, %55
  br label %66

66:                                               ; preds = %65
  br label %67

67:                                               ; preds = %66
  %68 = load i32, i32* %9, align 4
  %69 = add nsw i32 %68, 1
  store i32 %69, i32* %9, align 4
  br label %33

70:                                               ; preds = %64, %50, %33
  br label %71

71:                                               ; preds = %70
  %72 = load i32, i32* %8, align 4
  %73 = add nsw i32 %72, 1
  store i32 %73, i32* %8, align 4
  br label %21

74:                                               ; preds = %21
  %75 = load i32, i32* %11, align 4
  %76 = load i32, i32* %6, align 4
  %77 = icmp eq i32 %75, %76
  br i1 %77, label %78, label %102

78:                                               ; preds = %74
  store i32 0, i32* %7, align 4
  %79 = load i32, i32* %9, align 4
  %80 = load i32, i32* %6, align 4
  %81 = sub nsw i32 %79, %80
  store i32 %81, i32* %10, align 4
  br label %82

82:                                               ; preds = %94, %78
  %83 = load i32, i32* %10, align 4
  %84 = load i32, i32* %9, align 4
  %85 = icmp slt i32 %83, %84
  br i1 %85, label %86, label %99

86:                                               ; preds = %82
  %87 = load i32, i32* %7, align 4
  %88 = sext i32 %87 to i64
  %89 = getelementptr inbounds [256 x i8], [256 x i8]* %5, i64 0, i64 %88
  %90 = load i8, i8* %89, align 1
  %91 = load i32, i32* %10, align 4
  %92 = sext i32 %91 to i64
  %93 = getelementptr inbounds [256 x i8], [256 x i8]* %3, i64 0, i64 %92
  store i8 %90, i8* %93, align 1
  br label %94

94:                                               ; preds = %86
  %95 = load i32, i32* %10, align 4
  %96 = add nsw i32 %95, 1
  store i32 %96, i32* %10, align 4
  %97 = load i32, i32* %7, align 4
  %98 = add nsw i32 %97, 1
  store i32 %98, i32* %7, align 4
  br label %82

99:                                               ; preds = %82
  %100 = getelementptr inbounds [256 x i8], [256 x i8]* %3, i64 0, i64 0
  %101 = call i32 (i8*, ...) @printf(i8* getelementptr inbounds ([4 x i8], [4 x i8]* @.str.1, i64 0, i64 0), i8* %100)
  br label %105

102:                                              ; preds = %74
  %103 = getelementptr inbounds [256 x i8], [256 x i8]* %3, i64 0, i64 0
  %104 = call i32 (i8*, ...) @printf(i8* getelementptr inbounds ([4 x i8], [4 x i8]* @.str.1, i64 0, i64 0), i8* %103)
  br label %105

105:                                              ; preds = %102, %99
  ret void
}

declare dso_local i32 @__isoc99_scanf(i8*, ...) #1

; Function Attrs: nounwind readonly
declare dso_local i64 @strlen(i8*) #2

declare dso_local i32 @printf(i8*, ...) #1


!llvm.module.flags = !{!0}
!llvm.ident = !{!1}

!0 = !{i32 1, !"wchar_size", i32 4}
!1 = !{!"clang version 10.0.0-4ubuntu1 "}
